target datalayout = "e-m:e-p270:32:32-p271:32:32-p272:64:64-i64:64-i128:128-f80:128-n8:16:32:64-S128"
target triple = "x86_64-pc-linux-gnu"

%struct.ExplainState = type { ptr, i8, i8, i8, i8, i8, i8, i8, i8, i8, i8, i32, i32, i32, ptr, ptr, ptr, ptr, ptr, ptr, i8, i32, ptr }
%struct.StringInfoData = type { ptr, i32, i32, i32 }

@.str.395 = private unnamed_addr constant [66 x i8] c"ABCDEFGHIJKLMNOPQRSTUVWXYZabcdefghijklmnopqrstuvwxyz0123456789-_.\00", align 1
@.str.396 = private unnamed_addr constant [3 x i8] c" /\00", align 1

; Function Attrs: nounwind uwtable
define internal void @ExplainXMLTag(ptr noundef %0, i32 noundef %1, ptr noundef %2) #0 {
  %4 = alloca ptr, align 8
  %5 = alloca i32, align 4
  %6 = alloca ptr, align 8
  %7 = alloca ptr, align 8
  %8 = alloca ptr, align 8
  store ptr %0, ptr %4, align 8
  store i32 %1, ptr %5, align 4
  store ptr %2, ptr %6, align 8
  call void @llvm.lifetime.start.p0(i64 8, ptr %7) #10
  call void @llvm.lifetime.start.p0(i64 8, ptr %8) #10
  store ptr @.str.395, ptr %8, align 8
  %9 = load i32, ptr %5, align 4
  %10 = and i32 %9, 4
  %11 = icmp eq i32 %10, 0
  br i1 %11, label %12, label %20

12:                                               ; preds = %3
  %13 = load ptr, ptr %6, align 8
  %14 = getelementptr inbounds nuw %struct.ExplainState, ptr %13, i32 0, i32 0
  %15 = load ptr, ptr %14, align 8
  %16 = load ptr, ptr %6, align 8
  %17 = getelementptr inbounds nuw %struct.ExplainState, ptr %16, i32 0, i32 13
  %18 = load i32, ptr %17, align 4
  %19 = mul i32 2, %18
  call void @appendStringInfoSpaces(ptr noundef %15, i32 noundef %19)
  br label %20

20:                                               ; preds = %12, %3
  %21 = load ptr, ptr %6, align 8
  %22 = getelementptr inbounds nuw %struct.ExplainState, ptr %21, i32 0, i32 0
  %23 = load ptr, ptr %22, align 8
  %24 = getelementptr inbounds nuw %struct.StringInfoData, ptr %23, i32 0, i32 1
  %25 = load i32, ptr %24, align 8
  %26 = add i32 %25, 1
  %27 = load ptr, ptr %6, align 8
  %28 = getelementptr inbounds nuw %struct.ExplainState, ptr %27, i32 0, i32 0
  %29 = load ptr, ptr %28, align 8
  %30 = getelementptr inbounds nuw %struct.StringInfoData, ptr %29, i32 0, i32 2
  %31 = load i32, ptr %30, align 4
  %32 = icmp sge i32 %26, %31
  br i1 %32, label %33, label %37

33:                                               ; preds = %20
  %34 = load ptr, ptr %6, align 8
  %35 = getelementptr inbounds nuw %struct.ExplainState, ptr %34, i32 0, i32 0
  %36 = load ptr, ptr %35, align 8
  call void @appendStringInfoChar(ptr noundef %36, i8 noundef signext 60)
  br label %63

37:                                               ; preds = %20
  %38 = load ptr, ptr %6, align 8
  %39 = getelementptr inbounds nuw %struct.ExplainState, ptr %38, i32 0, i32 0
  %40 = load ptr, ptr %39, align 8
  %41 = getelementptr inbounds nuw %struct.StringInfoData, ptr %40, i32 0, i32 0
  %42 = load ptr, ptr %41, align 8
  %43 = load ptr, ptr %6, align 8
  %44 = getelementptr inbounds nuw %struct.ExplainState, ptr %43, i32 0, i32 0
  %45 = load ptr, ptr %44, align 8
  %46 = getelementptr inbounds nuw %struct.StringInfoData, ptr %45, i32 0, i32 1
  %47 = load i32, ptr %46, align 8
  %48 = sext i32 %47 to i64
  %49 = getelementptr inbounds i8, ptr %42, i64 %48
  store i8 60, ptr %49, align 1
  %50 = load ptr, ptr %6, align 8
  %51 = getelementptr inbounds nuw %struct.ExplainState, ptr %50, i32 0, i32 0
  %52 = load ptr, ptr %51, align 8
  %53 = getelementptr inbounds nuw %struct.StringInfoData, ptr %52, i32 0, i32 0
  %54 = load ptr, ptr %53, align 8
  %55 = load ptr, ptr %6, align 8
  %56 = getelementptr inbounds nuw %struct.ExplainState, ptr %55, i32 0, i32 0
  %57 = load ptr, ptr %56, align 8
  %58 = getelementptr inbounds nuw %struct.StringInfoData, ptr %57, i32 0, i32 1
  %59 = load i32, ptr %58, align 8
  %60 = add i32 %59, 1
  store i32 %60, ptr %58, align 8
  %61 = sext i32 %60 to i64
  %62 = getelementptr inbounds i8, ptr %54, i64 %61
  store i8 0, ptr %62, align 1
  br label %63

63:                                               ; preds = %37, %33
  %64 = load i32, ptr %5, align 4
  %65 = and i32 %64, 1
  %66 = icmp ne i32 %65, 0
  br i1 %66, label %67, label %111

67:                                               ; preds = %63
  %68 = load ptr, ptr %6, align 8
  %69 = getelementptr inbounds nuw %struct.ExplainState, ptr %68, i32 0, i32 0
  %70 = load ptr, ptr %69, align 8
  %71 = getelementptr inbounds nuw %struct.StringInfoData, ptr %70, i32 0, i32 1
  %72 = load i32, ptr %71, align 8
  %73 = add i32 %72, 1
  %74 = load ptr, ptr %6, align 8
  %75 = getelementptr inbounds nuw %struct.ExplainState, ptr %74, i32 0, i32 0
  %76 = load ptr, ptr %75, align 8
  %77 = getelementptr inbounds nuw %struct.StringInfoData, ptr %76, i32 0, i32 2
  %78 = load i32, ptr %77, align 4
  %79 = icmp sge i32 %73, %78
  br i1 %79, label %80, label %84

80:                                               ; preds = %67
  %81 = load ptr, ptr %6, align 8
  %82 = getelementptr inbounds nuw %struct.ExplainState, ptr %81, i32 0, i32 0
  %83 = load ptr, ptr %82, align 8
  call void @appendStringInfoChar(ptr noundef %83, i8 noundef signext 47)
  br label %110

84:                                               ; preds = %67
  %85 = load ptr, ptr %6, align 8
  %86 = getelementptr inbounds nuw %struct.ExplainState, ptr %85, i32 0, i32 0
  %87 = load ptr, ptr %86, align 8
  %88 = getelementptr inbounds nuw %struct.StringInfoData, ptr %87, i32 0, i32 0
  %89 = load ptr, ptr %88, align 8
  %90 = load ptr, ptr %6, align 8
  %91 = getelementptr inbounds nuw %struct.ExplainState, ptr %90, i32 0, i32 0
  %92 = load ptr, ptr %91, align 8
  %93 = getelementptr inbounds nuw %struct.StringInfoData, ptr %92, i32 0, i32 1
  %94 = load i32, ptr %93, align 8
  %95 = sext i32 %94 to i64
  %96 = getelementptr inbounds i8, ptr %89, i64 %95
  store i8 47, ptr %96, align 1
  %97 = load ptr, ptr %6, align 8
  %98 = getelementptr inbounds nuw %struct.ExplainState, ptr %97, i32 0, i32 0
  %99 = load ptr, ptr %98, align 8
  %100 = getelementptr inbounds nuw %struct.StringInfoData, ptr %99, i32 0, i32 0
  %101 = load ptr, ptr %100, align 8
  %102 = load ptr, ptr %6, align 8
  %103 = getelementptr inbounds nuw %struct.ExplainState, ptr %102, i32 0, i32 0
  %104 = load ptr, ptr %103, align 8
  %105 = getelementptr inbounds nuw %struct.StringInfoData, ptr %104, i32 0, i32 1
  %106 = load i32, ptr %105, align 8
  %107 = add i32 %106, 1
  store i32 %107, ptr %105, align 8
  %108 = sext i32 %107 to i64
  %109 = getelementptr inbounds i8, ptr %101, i64 %108
  store i8 0, ptr %109, align 1
  br label %110

110:                                              ; preds = %84, %80
  br label %111

111:                                              ; preds = %110, %63
  %112 = load ptr, ptr %4, align 8
  store ptr %112, ptr %7, align 8
  br label %113

113:                                              ; preds = %135, %111
  %114 = load ptr, ptr %7, align 8
  %115 = load i8, ptr %114, align 1
  %116 = icmp ne i8 %115, 0
  br i1 %116, label %117, label %138

117:                                              ; preds = %113
  %118 = load ptr, ptr %6, align 8
  %119 = getelementptr inbounds nuw %struct.ExplainState, ptr %118, i32 0, i32 0
  %120 = load ptr, ptr %119, align 8
  %121 = load ptr, ptr %8, align 8
  %122 = load ptr, ptr %7, align 8
  %123 = load i8, ptr %122, align 1
  %124 = sext i8 %123 to i32
  %125 = call ptr @strchr(ptr noundef %121, i32 noundef %124) #11
  %126 = icmp ne ptr %125, null
  br i1 %126, label %127, label %131

127:                                              ; preds = %117
  %128 = load ptr, ptr %7, align 8
  %129 = load i8, ptr %128, align 1
  %130 = sext i8 %129 to i32
  br label %132

131:                                              ; preds = %117
  br label %132

132:                                              ; preds = %131, %127
  %133 = phi i32 [ %130, %127 ], [ 45, %131 ]
  %134 = trunc i32 %133 to i8
  call void @appendStringInfoChar(ptr noundef %120, i8 noundef signext %134)
  br label %135

135:                                              ; preds = %132
  %136 = load ptr, ptr %7, align 8
  %137 = getelementptr inbounds nuw i8, ptr %136, i32 1
  store ptr %137, ptr %7, align 8
  br label %113, !llvm.loop !25

138:                                              ; preds = %113
  %139 = load i32, ptr %5, align 4
  %140 = and i32 %139, 2
  %141 = icmp ne i32 %140, 0
  br i1 %141, label %142, label %146

142:                                              ; preds = %138
  %143 = load ptr, ptr %6, align 8
  %144 = getelementptr inbounds nuw %struct.ExplainState, ptr %143, i32 0, i32 0
  %145 = load ptr, ptr %144, align 8
  call void @appendStringInfoString(ptr noundef %145, ptr noundef @.str.396)
  br label %146

146:                                              ; preds = %142, %138
  %147 = load ptr, ptr %6, align 8
  %148 = getelementptr inbounds nuw %struct.ExplainState, ptr %147, i32 0, i32 0
  %149 = load ptr, ptr %148, align 8
  %150 = getelementptr inbounds nuw %struct.StringInfoData, ptr %149, i32 0, i32 1
  %151 = load i32, ptr %150, align 8
  %152 = add i32 %151, 1
  %153 = load ptr, ptr %6, align 8
  %154 = getelementptr inbounds nuw %struct.ExplainState, ptr %153, i32 0, i32 0
  %155 = load ptr, ptr %154, align 8
  %156 = getelementptr inbounds nuw %struct.StringInfoData, ptr %155, i32 0, i32 2
  %157 = load i32, ptr %156, align 4
  %158 = icmp sge i32 %152, %157
  br i1 %158, label %159, label %163

159:                                              ; preds = %146
  %160 = load ptr, ptr %6, align 8
  %161 = getelementptr inbounds nuw %struct.ExplainState, ptr %160, i32 0, i32 0
  %162 = load ptr, ptr %161, align 8
  call void @appendStringInfoChar(ptr noundef %162, i8 noundef signext 62)
  br label %189

163:                                              ; preds = %146
  %164 = load ptr, ptr %6, align 8
  %165 = getelementptr inbounds nuw %struct.ExplainState, ptr %164, i32 0, i32 0
  %166 = load ptr, ptr %165, align 8
  %167 = getelementptr inbounds nuw %struct.StringInfoData, ptr %166, i32 0, i32 0
  %168 = load ptr, ptr %167, align 8
  %169 = load ptr, ptr %6, align 8
  %170 = getelementptr inbounds nuw %struct.ExplainState, ptr %169, i32 0, i32 0
  %171 = load ptr, ptr %170, align 8
  %172 = getelementptr inbounds nuw %struct.StringInfoData, ptr %171, i32 0, i32 1
  %173 = load i32, ptr %172, align 8
  %174 = sext i32 %173 to i64
  %175 = getelementptr inbounds i8, ptr %168, i64 %174
  store i8 62, ptr %175, align 1
  %176 = load ptr, ptr %6, align 8
  %177 = getelementptr inbounds nuw %struct.ExplainState, ptr %176, i32 0, i32 0
  %178 = load ptr, ptr %177, align 8
  %179 = getelementptr inbounds nuw %struct.StringInfoData, ptr %178, i32 0, i32 0
  %180 = load ptr, ptr %179, align 8
  %181 = load ptr, ptr %6, align 8
  %182 = getelementptr inbounds nuw %struct.ExplainState, ptr %181, i32 0, i32 0
  %183 = load ptr, ptr %182, align 8
  %184 = getelementptr inbounds nuw %struct.StringInfoData, ptr %183, i32 0, i32 1
  %185 = load i32, ptr %184, align 8
  %186 = add i32 %185, 1
  store i32 %186, ptr %184, align 8
  %187 = sext i32 %186 to i64
  %188 = getelementptr inbounds i8, ptr %180, i64 %187
  store i8 0, ptr %188, align 1
  br label %189

189:                                              ; preds = %163, %159
  %190 = load i32, ptr %5, align 4
  %191 = and i32 %190, 4
  %192 = icmp eq i32 %191, 0
  br i1 %192, label %193, label %237

193:                                              ; preds = %189
  %194 = load ptr, ptr %6, align 8
  %195 = getelementptr inbounds nuw %struct.ExplainState, ptr %194, i32 0, i32 0
  %196 = load ptr, ptr %195, align 8
  %197 = getelementptr inbounds nuw %struct.StringInfoData, ptr %196, i32 0, i32 1
  %198 = load i32, ptr %197, align 8
  %199 = add i32 %198, 1
  %200 = load ptr, ptr %6, align 8
  %201 = getelementptr inbounds nuw %struct.ExplainState, ptr %200, i32 0, i32 0
  %202 = load ptr, ptr %201, align 8
  %203 = getelementptr inbounds nuw %struct.StringInfoData, ptr %202, i32 0, i32 2
  %204 = load i32, ptr %203, align 4
  %205 = icmp sge i32 %199, %204
  br i1 %205, label %206, label %210

206:                                              ; preds = %193
  %207 = load ptr, ptr %6, align 8
  %208 = getelementptr inbounds nuw %struct.ExplainState, ptr %207, i32 0, i32 0
  %209 = load ptr, ptr %208, align 8
  call void @appendStringInfoChar(ptr noundef %209, i8 noundef signext 10)
  br label %236

210:                                              ; preds = %193
  %211 = load ptr, ptr %6, align 8
  %212 = getelementptr inbounds nuw %struct.ExplainState, ptr %211, i32 0, i32 0
  %213 = load ptr, ptr %212, align 8
  %214 = getelementptr inbounds nuw %struct.StringInfoData, ptr %213, i32 0, i32 0
  %215 = load ptr, ptr %214, align 8
  %216 = load ptr, ptr %6, align 8
  %217 = getelementptr inbounds nuw %struct.ExplainState, ptr %216, i32 0, i32 0
  %218 = load ptr, ptr %217, align 8
  %219 = getelementptr inbounds nuw %struct.StringInfoData, ptr %218, i32 0, i32 1
  %220 = load i32, ptr %219, align 8
  %221 = sext i32 %220 to i64
  %222 = getelementptr inbounds i8, ptr %215, i64 %221
  store i8 10, ptr %222, align 1
  %223 = load ptr, ptr %6, align 8
  %224 = getelementptr inbounds nuw %struct.ExplainState, ptr %223, i32 0, i32 0
  %225 = load ptr, ptr %224, align 8
  %226 = getelementptr inbounds nuw %struct.StringInfoData, ptr %225, i32 0, i32 0
  %227 = load ptr, ptr %226, align 8
  %228 = load ptr, ptr %6, align 8
  %229 = getelementptr inbounds nuw %struct.ExplainState, ptr %228, i32 0, i32 0
  %230 = load ptr, ptr %229, align 8
  %231 = getelementptr inbounds nuw %struct.StringInfoData, ptr %230, i32 0, i32 1
  %232 = load i32, ptr %231, align 8
  %233 = add i32 %232, 1
  store i32 %233, ptr %231, align 8
  %234 = sext i32 %233 to i64
  %235 = getelementptr inbounds i8, ptr %227, i64 %234
  store i8 0, ptr %235, align 1
  br label %236

236:                                              ; preds = %210, %206
  br label %237

237:                                              ; preds = %236, %189
  call void @llvm.lifetime.end.p0(i64 8, ptr %8) #10
  call void @llvm.lifetime.end.p0(i64 8, ptr %7) #10
  ret void
}