; Function Attrs: nounwind uwtable
define internal fastcc void @ExplainXMLTag(ptr noundef readonly captures(none) %0, i32 noundef range(i32 0, 6) %1, ptr noundef readonly captures(none) %2) unnamed_addr #0 {
  %4 = icmp samesign ult i32 %1, 4
  br i1 %4, label %5, label %10

5:                                                ; preds = %3
  %6 = load ptr, ptr %2, align 8
  %7 = getelementptr inbounds nuw i8, ptr %2, i64 28
  %8 = load i32, ptr %7, align 4
  %9 = shl i32 %8, 1
  tail call void @appendStringInfoSpaces(ptr noundef %6, i32 noundef %9) #13
  br label %10

10:                                               ; preds = %5, %3
  %11 = load ptr, ptr %2, align 8
  %12 = getelementptr inbounds nuw i8, ptr %11, i64 8
  %13 = load i32, ptr %12, align 8
  %14 = add i32 %13, 1
  %15 = getelementptr inbounds nuw i8, ptr %11, i64 12
  %16 = load i32, ptr %15, align 4
  %.not = icmp slt i32 %14, %16
  br i1 %.not, label %18, label %17

17:                                               ; preds = %10
  tail call void @appendStringInfoChar(ptr noundef nonnull %11, i8 noundef signext 60) #13
  br label %29

18:                                               ; preds = %10
  %19 = load ptr, ptr %11, align 8
  %20 = sext i32 %13 to i64
  %21 = getelementptr inbounds i8, ptr %19, i64 %20
  store i8 60, ptr %21, align 1
  %22 = load ptr, ptr %2, align 8
  %23 = load ptr, ptr %22, align 8
  %24 = getelementptr inbounds nuw i8, ptr %22, i64 8
  %25 = load i32, ptr %24, align 8
  %26 = add i32 %25, 1
  store i32 %26, ptr %24, align 8
  %27 = sext i32 %26 to i64
  %28 = getelementptr inbounds i8, ptr %23, i64 %27
  store i8 0, ptr %28, align 1
  br label %29

29:                                               ; preds = %18, %17
  %30 = and i32 %1, 1
  %.not42 = icmp eq i32 %30, 0
  br i1 %.not42, label %50, label %31

31:                                               ; preds = %29
  %32 = load ptr, ptr %2, align 8
  %33 = getelementptr inbounds nuw i8, ptr %32, i64 8
  %34 = load i32, ptr %33, align 8
  %35 = add i32 %34, 1
  %36 = getelementptr inbounds nuw i8, ptr %32, i64 12
  %37 = load i32, ptr %36, align 4
  %.not43 = icmp slt i32 %35, %37
  br i1 %.not43, label %39, label %38

38:                                               ; preds = %31
  tail call void @appendStringInfoChar(ptr noundef nonnull %32, i8 noundef signext 47) #13
  br label %50

39:                                               ; preds = %31
  %40 = load ptr, ptr %32, align 8
  %41 = sext i32 %34 to i64
  %42 = getelementptr inbounds i8, ptr %40, i64 %41
  store i8 47, ptr %42, align 1
  %43 = load ptr, ptr %2, align 8
  %44 = load ptr, ptr %43, align 8
  %45 = getelementptr inbounds nuw i8, ptr %43, i64 8
  %46 = load i32, ptr %45, align 8
  %47 = add i32 %46, 1
  store i32 %47, ptr %45, align 8
  %48 = sext i32 %47 to i64
  %49 = getelementptr inbounds i8, ptr %44, i64 %48
  store i8 0, ptr %49, align 1
  br label %50

50:                                               ; preds = %38, %39, %29
  %51 = load i8, ptr %0, align 1
  %.not4449 = icmp eq i8 %51, 0
  br i1 %.not4449, label %._crit_edge, label %.lr.ph

.lr.ph:                                           ; preds = %50, %.lr.ph
  %52 = phi i8 [ %56, %.lr.ph ], [ %51, %50 ]
  %.050 = phi ptr [ %55, %.lr.ph ], [ %0, %50 ]
  %53 = load ptr, ptr %2, align 8
  %54 = sext i8 %52 to i32
  %memchr = tail call ptr @memchr(ptr noundef nonnull dereferenceable(1) @.str.395, i32 %54, i64 66)
  %.not48 = icmp eq ptr %memchr, null
  %spec.select = select i1 %.not48, i8 45, i8 %52
  tail call void @appendStringInfoChar(ptr noundef %53, i8 noundef signext %spec.select) #13
  %55 = getelementptr inbounds nuw i8, ptr %.050, i64 1
  %56 = load i8, ptr %55, align 1
  %.not44 = icmp eq i8 %56, 0
  br i1 %.not44, label %._crit_edge, label %.lr.ph, !llvm.loop !27

._crit_edge:                                      ; preds = %.lr.ph, %50
  %57 = and i32 %1, 2
  %.not45 = icmp eq i32 %57, 0
  br i1 %.not45, label %60, label %58

58:                                               ; preds = %._crit_edge
  %59 = load ptr, ptr %2, align 8
  tail call void @appendStringInfoString(ptr noundef %59, ptr noundef nonnull @.str.396) #13
  br label %60

60:                                               ; preds = %58, %._crit_edge
  %61 = load ptr, ptr %2, align 8
  %62 = getelementptr inbounds nuw i8, ptr %61, i64 8
  %63 = load i32, ptr %62, align 8
  %64 = add i32 %63, 1
  %65 = getelementptr inbounds nuw i8, ptr %61, i64 12
  %66 = load i32, ptr %65, align 4
  %.not46 = icmp slt i32 %64, %66
  br i1 %.not46, label %68, label %67

67:                                               ; preds = %60
  tail call void @appendStringInfoChar(ptr noundef nonnull %61, i8 noundef signext 62) #13
  br label %79

68:                                               ; preds = %60
  %69 = load ptr, ptr %61, align 8
  %70 = sext i32 %63 to i64
  %71 = getelementptr inbounds i8, ptr %69, i64 %70
  store i8 62, ptr %71, align 1
  %72 = load ptr, ptr %2, align 8
  %73 = load ptr, ptr %72, align 8
  %74 = getelementptr inbounds nuw i8, ptr %72, i64 8
  %75 = load i32, ptr %74, align 8
  %76 = add i32 %75, 1
  store i32 %76, ptr %74, align 8
  %77 = sext i32 %76 to i64
  %78 = getelementptr inbounds i8, ptr %73, i64 %77
  store i8 0, ptr %78, align 1
  br label %79

79:                                               ; preds = %68, %67
  br i1 %4, label %80, label %99

80:                                               ; preds = %79
  %81 = load ptr, ptr %2, align 8
  %82 = getelementptr inbounds nuw i8, ptr %81, i64 8
  %83 = load i32, ptr %82, align 8
  %84 = add i32 %83, 1
  %85 = getelementptr inbounds nuw i8, ptr %81, i64 12
  %86 = load i32, ptr %85, align 4
  %.not47 = icmp slt i32 %84, %86
  br i1 %.not47, label %88, label %87

87:                                               ; preds = %80
  tail call void @appendStringInfoChar(ptr noundef nonnull %81, i8 noundef signext 10) #13
  br label %99

88:                                               ; preds = %80
  %89 = load ptr, ptr %81, align 8
  %90 = sext i32 %83 to i64
  %91 = getelementptr inbounds i8, ptr %89, i64 %90
  store i8 10, ptr %91, align 1
  %92 = load ptr, ptr %2, align 8
  %93 = load ptr, ptr %92, align 8
  %94 = getelementptr inbounds nuw i8, ptr %92, i64 8
  %95 = load i32, ptr %94, align 8
  %96 = add i32 %95, 1
  store i32 %96, ptr %94, align 8
  %97 = sext i32 %96 to i64
  %98 = getelementptr inbounds i8, ptr %93, i64 %97
  store i8 0, ptr %98, align 1
  br label %99

99:                                               ; preds = %87, %88, %79
  ret void
}